target datalayout = "e-m:e-p270:32:32-p271:32:32-p272:64:64-i64:64-i128:128-f80:128-n8:16:32:64-S128"
target triple = "x86_64-pc-linux-gnu"

%"class.std::ios_base" = type { ptr, i64, i64, i32, i32, i32, ptr, %"struct.std::ios_base::_Words", [8 x %"struct.std::ios_base::_Words"], i32, ptr, %"class.std::locale" }
%"struct.std::ios_base::_Words" = type { ptr, i64 }
%"class.std::locale" = type { ptr }

@.str.148 = private unnamed_addr constant [2 x i8] c">\00", align 1
@.str.437 = private unnamed_addr constant [15 x i8] c"-byte object <\00", align 1
@.str.438 = private unnamed_addr constant [6 x i8] c" ... \00", align 1

; Function Attrs: inlinehint mustprogress nounwind uwtable
define linkonce_odr noundef i32 @_ZStorSt12_Ios_IostateS_(i32 noundef %0, i32 noundef %1) #8 comdat {
  %3 = alloca i32, align 4
  %4 = alloca i32, align 4
  store i32 %0, ptr %3, align 4, !tbaa !1475
  store i32 %1, ptr %4, align 4, !tbaa !1475
  %5 = load i32, ptr %3, align 4, !tbaa !1475
  %6 = load i32, ptr %4, align 4, !tbaa !1475
  %7 = or i32 %5, %6
  ret i32 %7
}

; Function Attrs: mustprogress nounwind uwtable
define available_externally noundef i32 @_ZNKSt9basic_iosIcSt11char_traitsIcEE7rdstateEv(ptr noundef nonnull align 8 dereferenceable(264) %0) #5 align 2 {
  %2 = alloca ptr, align 8
  store ptr %0, ptr %2, align 8, !tbaa !1473
  %3 = load ptr, ptr %2, align 8
  %4 = getelementptr inbounds nuw %"class.std::ios_base", ptr %3, i32 0, i32 5
  %5 = load i32, ptr %4, align 8, !tbaa !1476
  ret i32 %5
}

; Function Attrs: mustprogress nounwind uwtable
define linkonce_odr noundef i64 @_ZNSt11char_traitsIcE6lengthEPKc(ptr noundef %0) #5 comdat align 2 {
  %2 = alloca ptr, align 8
  store ptr %0, ptr %2, align 8, !tbaa !29
  %3 = load ptr, ptr %2, align 8, !tbaa !29
  %4 = call i64 @strlen(ptr noundef %3) #3
  ret i64 %4
}

; Function Attrs: mustprogress uwtable
define available_externally void @_ZNSt9basic_iosIcSt11char_traitsIcEE8setstateESt12_Ios_Iostate(ptr noundef nonnull align 8 dereferenceable(264) %0, i32 noundef %1) #4 align 2 {
  %3 = alloca ptr, align 8
  %4 = alloca i32, align 4
  store ptr %0, ptr %3, align 8, !tbaa !1473
  store i32 %1, ptr %4, align 4, !tbaa !1475
  %5 = load ptr, ptr %3, align 8
  %6 = call noundef i32 @_ZNKSt9basic_iosIcSt11char_traitsIcEE7rdstateEv(ptr noundef nonnull align 8 dereferenceable(264) %5)
  %7 = load i32, ptr %4, align 4, !tbaa !1475
  %8 = call noundef i32 @_ZStorSt12_Ios_IostateS_(i32 noundef %6, i32 noundef %7)
  call void @_ZNSt9basic_iosIcSt11char_traitsIcEE5clearESt12_Ios_Iostate(ptr noundef nonnull align 8 dereferenceable(264) %5, i32 noundef %8)
  ret void
}

; Function Attrs: inlinehint mustprogress uwtable
define available_externally noundef nonnull align 8 dereferenceable(8) ptr @_ZStlsISt11char_traitsIcEERSt13basic_ostreamIcT_ES5_PKc(ptr noundef nonnull align 8 dereferenceable(8) %0, ptr noundef %1) #11 {
  %3 = alloca ptr, align 8
  %4 = alloca ptr, align 8
  store ptr %0, ptr %3, align 8, !tbaa !175
  store ptr %1, ptr %4, align 8, !tbaa !29
  %5 = load ptr, ptr %4, align 8, !tbaa !29
  %6 = icmp ne ptr %5, null
  br i1 %6, label %13, label %7

7:                                                ; preds = %2
  %8 = load ptr, ptr %3, align 8, !tbaa !175
  %9 = load ptr, ptr %8, align 8, !tbaa !47
  %10 = getelementptr i8, ptr %9, i64 -24
  %11 = load i64, ptr %10, align 8
  %12 = getelementptr inbounds i8, ptr %8, i64 %11
  call void @_ZNSt9basic_iosIcSt11char_traitsIcEE8setstateESt12_Ios_Iostate(ptr noundef nonnull align 8 dereferenceable(264) %12, i32 noundef 1)
  br label %19

13:                                               ; preds = %2
  %14 = load ptr, ptr %3, align 8, !tbaa !175
  %15 = load ptr, ptr %4, align 8, !tbaa !29
  %16 = load ptr, ptr %4, align 8, !tbaa !29
  %17 = call noundef i64 @_ZNSt11char_traitsIcE6lengthEPKc(ptr noundef %16)
  %18 = call noundef nonnull align 8 dereferenceable(8) ptr @_ZSt16__ostream_insertIcSt11char_traitsIcEERSt13basic_ostreamIT_T0_ES6_PKS3_l(ptr noundef nonnull align 8 dereferenceable(8) %14, ptr noundef %15, i64 noundef %17)
  br label %19

19:                                               ; preds = %13, %7
  %20 = load ptr, ptr %3, align 8, !tbaa !175
  ret ptr %20
}

; Function Attrs: mustprogress uwtable
define available_externally noundef nonnull align 8 dereferenceable(8) ptr @_ZNSolsEm(ptr noundef nonnull align 8 dereferenceable(8) %0, i64 noundef %1) #4 align 2 {
  %3 = alloca ptr, align 8
  %4 = alloca i64, align 8
  store ptr %0, ptr %3, align 8, !tbaa !175
  store i64 %1, ptr %4, align 8, !tbaa !179
  %5 = load ptr, ptr %3, align 8
  %6 = load i64, ptr %4, align 8, !tbaa !179
  %7 = call noundef nonnull align 8 dereferenceable(8) ptr @_ZNSo9_M_insertImEERSoT_(ptr noundef nonnull align 8 dereferenceable(8) %5, i64 noundef %6)
  ret ptr %7
}

; Function Attrs: mustprogress uwtable
define internal void @_ZN7testing12_GLOBAL__N_124PrintBytesInObjectToImplEPKhmPSo(ptr noundef %0, i64 noundef %1, ptr noundef %2) #4 {
  %4 = alloca ptr, align 8
  %5 = alloca i64, align 8
  %6 = alloca ptr, align 8
  %7 = alloca i64, align 8
  %8 = alloca i64, align 8
  %9 = alloca i64, align 8
  store ptr %0, ptr %4, align 8, !tbaa !29
  store i64 %1, ptr %5, align 8, !tbaa !179
  store ptr %2, ptr %6, align 8, !tbaa !175
  %10 = load ptr, ptr %6, align 8, !tbaa !175
  %11 = load i64, ptr %5, align 8, !tbaa !179
  %12 = call noundef nonnull align 8 dereferenceable(8) ptr @_ZNSolsEm(ptr noundef nonnull align 8 dereferenceable(8) %10, i64 noundef %11)
  %13 = call noundef nonnull align 8 dereferenceable(8) ptr @_ZStlsISt11char_traitsIcEERSt13basic_ostreamIcT_ES5_PKc(ptr noundef nonnull align 8 dereferenceable(8) %12, ptr noundef @.str.437)
  call void @llvm.lifetime.start.p0(i64 8, ptr %7) #3
  store i64 132, ptr %7, align 8, !tbaa !179
  call void @llvm.lifetime.start.p0(i64 8, ptr %8) #3
  store i64 64, ptr %8, align 8, !tbaa !179
  %14 = load i64, ptr %5, align 8, !tbaa !179
  %15 = icmp ult i64 %14, 132
  br i1 %15, label %16, label %20

16:                                               ; preds = %3
  %17 = load ptr, ptr %4, align 8, !tbaa !29
  %18 = load i64, ptr %5, align 8, !tbaa !179
  %19 = load ptr, ptr %6, align 8, !tbaa !175
  call void @_ZN7testing12_GLOBAL__N_126PrintByteSegmentInObjectToEPKhmmPSo(ptr noundef %17, i64 noundef 0, i64 noundef %18, ptr noundef %19)
  br label %36

20:                                               ; preds = %3
  %21 = load ptr, ptr %4, align 8, !tbaa !29
  %22 = load ptr, ptr %6, align 8, !tbaa !175
  call void @_ZN7testing12_GLOBAL__N_126PrintByteSegmentInObjectToEPKhmmPSo(ptr noundef %21, i64 noundef 0, i64 noundef 64, ptr noundef %22)
  %23 = load ptr, ptr %6, align 8, !tbaa !175
  %24 = call noundef nonnull align 8 dereferenceable(8) ptr @_ZStlsISt11char_traitsIcEERSt13basic_ostreamIcT_ES5_PKc(ptr noundef nonnull align 8 dereferenceable(8) %23, ptr noundef @.str.438)
  call void @llvm.lifetime.start.p0(i64 8, ptr %9) #3
  %25 = load i64, ptr %5, align 8, !tbaa !179
  %26 = sub i64 %25, 64
  %27 = add i64 %26, 1
  %28 = udiv i64 %27, 2
  %29 = mul i64 %28, 2
  store i64 %29, ptr %9, align 8, !tbaa !179
  %30 = load ptr, ptr %4, align 8, !tbaa !29
  %31 = load i64, ptr %9, align 8, !tbaa !179
  %32 = load i64, ptr %5, align 8, !tbaa !179
  %33 = load i64, ptr %9, align 8, !tbaa !179
  %34 = sub i64 %32, %33
  %35 = load ptr, ptr %6, align 8, !tbaa !175
  call void @_ZN7testing12_GLOBAL__N_126PrintByteSegmentInObjectToEPKhmmPSo(ptr noundef %30, i64 noundef %31, i64 noundef %34, ptr noundef %35)
  call void @llvm.lifetime.end.p0(i64 8, ptr %9) #3
  br label %36

36:                                               ; preds = %20, %16
  %37 = load ptr, ptr %6, align 8, !tbaa !175
  %38 = call noundef nonnull align 8 dereferenceable(8) ptr @_ZStlsISt11char_traitsIcEERSt13basic_ostreamIcT_ES5_PKc(ptr noundef nonnull align 8 dereferenceable(8) %37, ptr noundef @.str.148)
  call void @llvm.lifetime.end.p0(i64 8, ptr %8) #3
  call void @llvm.lifetime.end.p0(i64 8, ptr %7) #3
  ret void
}

; Function Attrs: mustprogress uwtable
define void @_ZN7testing8internal20PrintBytesInObjectToEPKhmPSo(ptr noundef %0, i64 noundef %1, ptr noundef %2) #4 {
  %4 = alloca ptr, align 8
  %5 = alloca i64, align 8
  %6 = alloca ptr, align 8
  store ptr %0, ptr %4, align 8, !tbaa !29
  store i64 %1, ptr %5, align 8, !tbaa !179
  store ptr %2, ptr %6, align 8, !tbaa !175
  %7 = load ptr, ptr %4, align 8, !tbaa !29
  %8 = load i64, ptr %5, align 8, !tbaa !179
  %9 = load ptr, ptr %6, align 8, !tbaa !175
  call void @_ZN7testing12_GLOBAL__N_124PrintBytesInObjectToImplEPKhmPSo(ptr noundef %7, i64 noundef %8, ptr noundef %9)
  ret void
}