; Function Attrs: mustprogress uwtable
define void @_ZN7testing8internal20PrintBytesInObjectToEPKhmPSo(ptr noundef readonly captures(none) %0, i64 noundef %1, ptr noundef nonnull %2) local_unnamed_addr #3 {
  %4 = tail call noundef nonnull align 8 dereferenceable(8) ptr @_ZNSo9_M_insertImEERSoT_(ptr noundef nonnull align 8 dereferenceable(8) %2, i64 noundef %1)
  %5 = tail call noundef nonnull align 8 dereferenceable(8) ptr @_ZSt16__ostream_insertIcSt11char_traitsIcEERSt13basic_ostreamIT_T0_ES6_PKS3_l(ptr noundef nonnull align 8 dereferenceable(8) %4, ptr noundef nonnull @.str.437, i64 noundef 14)
  %6 = icmp ult i64 %1, 132
  br i1 %6, label %7, label %8

7:                                                ; preds = %3
  tail call fastcc void @_ZN7testing12_GLOBAL__N_126PrintByteSegmentInObjectToEPKhmmPSo(ptr noundef readonly %0, i64 noundef 0, i64 noundef %1, ptr noundef nonnull %2)
  br label %_ZN7testing12_GLOBAL__N_124PrintBytesInObjectToImplEPKhmPSo.exit

8:                                                ; preds = %3
  tail call fastcc void @_ZN7testing12_GLOBAL__N_126PrintByteSegmentInObjectToEPKhmmPSo(ptr noundef readonly %0, i64 noundef 0, i64 noundef 64, ptr noundef nonnull %2)
  %9 = tail call noundef nonnull align 8 dereferenceable(8) ptr @_ZSt16__ostream_insertIcSt11char_traitsIcEERSt13basic_ostreamIT_T0_ES6_PKS3_l(ptr noundef nonnull align 8 dereferenceable(8) %2, ptr noundef nonnull @.str.438, i64 noundef 5)
  %10 = add i64 %1, -63
  %11 = and i64 %10, -2
  %12 = sub i64 %1, %11
  tail call fastcc void @_ZN7testing12_GLOBAL__N_126PrintByteSegmentInObjectToEPKhmmPSo(ptr noundef readonly %0, i64 noundef %11, i64 noundef %12, ptr noundef nonnull %2)
  br label %_ZN7testing12_GLOBAL__N_124PrintBytesInObjectToImplEPKhmPSo.exit

_ZN7testing12_GLOBAL__N_124PrintBytesInObjectToImplEPKhmPSo.exit: ; preds = %7, %8
  %13 = tail call noundef nonnull align 8 dereferenceable(8) ptr @_ZSt16__ostream_insertIcSt11char_traitsIcEERSt13basic_ostreamIT_T0_ES6_PKS3_l(ptr noundef nonnull align 8 dereferenceable(8) %2, ptr noundef nonnull @.str.148, i64 noundef 1)
  ret void
}